; Function Attrs: mustprogress uwtable
define noundef zeroext i1 @_ZNK32pxrInternal_v0_24__pxrReserved__9UsdObject11HasMetadataERKNS_7TfTokenE(ptr noundef nonnull align 8 dereferenceable(32) %0, ptr noundef nonnull align 8 dereferenceable(8) %1) local_unnamed_addr #0 align 2 personality ptr @__gxx_personality_v0 {
  %3 = alloca %"class.pxrInternal_v0_24__pxrReserved__::TfToken", align 8
  %4 = getelementptr inbounds nuw i8, ptr %0, i64 8
  %5 = load ptr, ptr %4, align 8
  %.not.i.i = icmp eq ptr %5, null
  br i1 %.not.i.i, label %10, label %6

6:                                                ; preds = %2
  %7 = getelementptr inbounds nuw i8, ptr %5, i64 56
  %8 = load i64, ptr %7, align 8
  %9 = and i64 %8, 2048
  %.not5.i.i = icmp eq i64 %9, 0
  br i1 %.not5.i.i, label %_ZNK32pxrInternal_v0_24__pxrReserved__9UsdObject9_GetStageEv.exit, label %10

10:                                               ; preds = %6, %2
  tail call void @_ZN32pxrInternal_v0_24__pxrReserved__31Usd_ThrowExpiredPrimAccessErrorEPKNS_12Usd_PrimDataE(ptr noundef %5)
  br label %_ZNK32pxrInternal_v0_24__pxrReserved__9UsdObject9_GetStageEv.exit

_ZNK32pxrInternal_v0_24__pxrReserved__9UsdObject9_GetStageEv.exit: ; preds = %6, %10
  %11 = load ptr, ptr %5, align 8
  store ptr null, ptr %3, align 8
  %12 = invoke noundef zeroext i1 @_ZNK32pxrInternal_v0_24__pxrReserved__8UsdStage12_HasMetadataERKNS_9UsdObjectERKNS_7TfTokenES6_b(ptr noundef nonnull align 8 dereferenceable(1282) %11, ptr noundef nonnull align 8 dereferenceable(32) %0, ptr noundef nonnull align 8 dereferenceable(8) %1, ptr noundef nonnull align 8 dereferenceable(8) %3, i1 noundef zeroext true)
          to label %13 unwind label %21

13:                                               ; preds = %_ZNK32pxrInternal_v0_24__pxrReserved__9UsdObject9_GetStageEv.exit
  %14 = load ptr, ptr %3, align 8
  %15 = ptrtoint ptr %14 to i64
  %16 = and i64 %15, 7
  %.not.i.i3 = icmp eq i64 %16, 0
  br i1 %.not.i.i3, label %_ZN32pxrInternal_v0_24__pxrReserved__7TfTokenD2Ev.exit, label %17

17:                                               ; preds = %13
  %18 = and i64 %15, -8
  %19 = inttoptr i64 %18 to ptr
  %20 = atomicrmw sub ptr %19, i32 2 release, align 4
  br label %_ZN32pxrInternal_v0_24__pxrReserved__7TfTokenD2Ev.exit

_ZN32pxrInternal_v0_24__pxrReserved__7TfTokenD2Ev.exit: ; preds = %13, %17
  ret i1 %12

21:                                               ; preds = %_ZNK32pxrInternal_v0_24__pxrReserved__9UsdObject9_GetStageEv.exit
  %22 = landingpad { ptr, i32 }
          cleanup
  %23 = load ptr, ptr %3, align 8
  %24 = ptrtoint ptr %23 to i64
  %25 = and i64 %24, 7
  %.not.i.i4 = icmp eq i64 %25, 0
  br i1 %.not.i.i4, label %_ZN32pxrInternal_v0_24__pxrReserved__7TfTokenD2Ev.exit5, label %26

26:                                               ; preds = %21
  %27 = and i64 %24, -8
  %28 = inttoptr i64 %27 to ptr
  %29 = atomicrmw sub ptr %28, i32 2 release, align 4
  br label %_ZN32pxrInternal_v0_24__pxrReserved__7TfTokenD2Ev.exit5

_ZN32pxrInternal_v0_24__pxrReserved__7TfTokenD2Ev.exit5: ; preds = %21, %26
  resume { ptr, i32 } %22
}